SF:/home/runner/work/stn/stn/crates/stn/src/commands/config.rs
FN:7,_RNvNtNtCsEWPAVLh8Tr_3stn8commands6config6config
FN:7,_RNCNvNtNtCsEWPAVLh8Tr_3stn8commands6config6config0B7_
FN:28,_RNvNtNtCsEWPAVLh8Tr_3stn8commands6config18handle_full_config
FN:28,_RNCNvNtNtCsEWPAVLh8Tr_3stn8commands6config18handle_full_config0B7_
FN:45,_RNvNtNtCsEWPAVLh8Tr_3stn8commands6config22handle_proposer_config
FN:45,_RNCNvNtNtCsEWPAVLh8Tr_3stn8commands6config22handle_proposer_config0B7_
FN:75,_RNvNtNtCsEWPAVLh8Tr_3stn8commands6config20confirm_with_message
FN:83,_RNvNtNtCsEWPAVLh8Tr_3stn8commands6config30prompt_validate_save_endpoints
FN:83,_RNCNvNtNtCsEWPAVLh8Tr_3stn8commands6config30prompt_validate_save_endpoints0B7_
FN:112,_RNvNtNtCsEWPAVLh8Tr_3stn8commands6config13offer_restart
FN:112,_RNCNvNtNtCsEWPAVLh8Tr_3stn8commands6config13offer_restart0B7_
FN:122,_RNvNtNtCsEWPAVLh8Tr_3stn8commands6config23init_or_update_proposer
FN:122,_RNCNvNtNtCsEWPAVLh8Tr_3stn8commands6config23init_or_update_proposer0B7_
FN:158,_RNvNtNtCsEWPAVLh8Tr_3stn8commands6config38handle_existing_proposer_configuration
FN:161,_RNCNvNtNtCsEWPAVLh8Tr_3stn8commands6config38handle_existing_proposer_configuration0B7_
FN:189,_RNvNtNtCsEWPAVLh8Tr_3stn8commands6config25validate_node_sync_status
FN:189,_RNCNvNtNtCsEWPAVLh8Tr_3stn8commands6config25validate_node_sync_status0B7_
FN:205,_RNvNtNtCsEWPAVLh8Tr_3stn8commands6config22select_prover_endpoint
FN:205,_RNCNvNtNtCsEWPAVLh8Tr_3stn8commands6config22select_prover_endpoint0B7_
FNDA:0,_RNvNtNtCsEWPAVLh8Tr_3stn8commands6config6config
FNDA:0,_RNCNvNtNtCsEWPAVLh8Tr_3stn8commands6config6config0B7_
FNDA:0,_RNvNtNtCsEWPAVLh8Tr_3stn8commands6config18handle_full_config
FNDA:0,_RNCNvNtNtCsEWPAVLh8Tr_3stn8commands6config18handle_full_config0B7_
FNDA:0,_RNvNtNtCsEWPAVLh8Tr_3stn8commands6config22handle_proposer_config
FNDA:0,_RNCNvNtNtCsEWPAVLh8Tr_3stn8commands6config22handle_proposer_config0B7_
FNDA:0,_RNvNtNtCsEWPAVLh8Tr_3stn8commands6config20confirm_with_message
FNDA:0,_RNvNtNtCsEWPAVLh8Tr_3stn8commands6config30prompt_validate_save_endpoints
FNDA:0,_RNCNvNtNtCsEWPAVLh8Tr_3stn8commands6config30prompt_validate_save_endpoints0B7_
FNDA:0,_RNvNtNtCsEWPAVLh8Tr_3stn8commands6config13offer_restart
FNDA:0,_RNCNvNtNtCsEWPAVLh8Tr_3stn8commands6config13offer_restart0B7_
FNDA:0,_RNvNtNtCsEWPAVLh8Tr_3stn8commands6config23init_or_update_proposer
FNDA:0,_RNCNvNtNtCsEWPAVLh8Tr_3stn8commands6config23init_or_update_proposer0B7_
FNDA:0,_RNvNtNtCsEWPAVLh8Tr_3stn8commands6config38handle_existing_proposer_configuration
FNDA:0,_RNCNvNtNtCsEWPAVLh8Tr_3stn8commands6config38handle_existing_proposer_configuration0B7_
FNDA:0,_RNvNtNtCsEWPAVLh8Tr_3stn8commands6config25validate_node_sync_status
FNDA:0,_RNCNvNtNtCsEWPAVLh8Tr_3stn8commands6config25validate_node_sync_status0B7_
FNDA:0,_RNvNtNtCsEWPAVLh8Tr_3stn8commands6config22select_prover_endpoint
FNDA:0,_RNCNvNtNtCsEWPAVLh8Tr_3stn8commands6config22select_prover_endpoint0B7_
FNF:19
FNH:0
DA:7,0
DA:8,0
DA:9,0
DA:10,0
DA:11,0
DA:13,0
DA:16,0
DA:18,0
DA:19,0
DA:20,0
DA:21,0
DA:22,0
DA:23,0
DA:25,0
DA:28,0
DA:29,0
DA:30,0
DA:31,0
DA:32,0
DA:33,0
DA:34,0
DA:35,0
DA:36,0
DA:37,0
DA:38,0
DA:39,0
DA:40,0
DA:41,0
DA:42,0
DA:45,0
DA:46,0
DA:47,0
DA:48,0
DA:49,0
DA:50,0
DA:51,0
DA:53,0
DA:54,0
DA:55,0
DA:56,0
DA:57,0
DA:58,0
DA:59,0
DA:60,0
DA:61,0
DA:64,0
DA:65,0
DA:66,0
DA:69,0
DA:70,0
DA:71,0
DA:72,0
DA:75,0
DA:76,0
DA:77,0
DA:78,0
DA:79,0
DA:80,0
DA:83,0
DA:84,0
DA:85,0
DA:86,0
DA:87,0
DA:88,0
DA:89,0
DA:90,0
DA:91,0
DA:92,0
DA:93,0
DA:94,0
DA:95,0
DA:96,0
DA:98,0
DA:99,0
DA:101,0
DA:102,0
DA:103,0
DA:104,0
DA:106,0
DA:107,0
DA:109,0
DA:112,0
DA:113,0
DA:114,0
DA:115,0
DA:116,0
DA:117,0
DA:118,0
DA:122,0
DA:123,0
DA:124,0
DA:125,0
DA:126,0
DA:129,0
DA:130,0
DA:131,0
DA:132,0
DA:133,0
DA:134,0
DA:135,0
DA:136,0
DA:137,0
DA:138,0
DA:139,0
DA:140,0
DA:141,0
DA:142,0
DA:143,0
DA:144,0
DA:145,0
DA:146,0
DA:147,0
DA:148,0
DA:149,0
DA:150,0
DA:151,0
DA:152,0
DA:153,0
DA:154,0
DA:155,0
DA:158,0
DA:159,0
DA:160,0
DA:161,0
DA:162,0
DA:163,0
DA:164,0
DA:165,0
DA:166,0
DA:167,0
DA:168,0
DA:169,0
DA:171,0
DA:172,0
DA:173,0
DA:174,0
DA:177,0
DA:178,0
DA:179,0
DA:180,0
DA:181,0
DA:182,0
DA:184,0
DA:185,0
DA:187,0
DA:189,0
DA:190,0
DA:191,0
DA:192,0
DA:193,0
DA:194,0
DA:195,0
DA:196,0
DA:197,0
DA:198,0
DA:200,0
DA:201,0
DA:203,0
DA:205,0
DA:206,0
DA:207,0
DA:208,0
DA:209,0
DA:210,0
DA:211,0
DA:212,0
DA:213,0
DA:214,0
DA:215,0
DA:216,0
DA:217,0
DA:218,0
DA:219,0
DA:220,0
DA:221,0
DA:222,0
DA:223,0
DA:224,0
DA:226,0
BRF:0
BRH:0
LF:188
LH:0
end_of_record
SF:/home/runner/work/stn/stn/crates/stn/src/commands/dashboard.rs
FN:5,_RNvNtNtCsEWPAVLh8Tr_3stn8commands9dashboard9dashboard
FNDA:0,_RNvNtNtCsEWPAVLh8Tr_3stn8commands9dashboard9dashboard
FNF:1
FNH:0
DA:5,0
DA:6,0
DA:7,0
DA:8,0
DA:9,0
DA:10,0
DA:11,0
DA:12,0
DA:13,0
DA:14,0
DA:15,0
DA:16,0
DA:17,0
DA:18,0
DA:20,0
BRF:0
BRH:0
LF:15
LH:0
end_of_record
SF:/home/runner/work/stn/stn/crates/stn/src/commands/down.rs
FN:5,_RNvNtNtCsEWPAVLh8Tr_3stn8commands4down4down
FNDA:0,_RNvNtNtCsEWPAVLh8Tr_3stn8commands4down4down
FNF:1
FNH:0
DA:5,0
DA:6,0
DA:7,0
DA:8,0
DA:9,0
DA:10,0
DA:11,0
DA:12,0
DA:13,0
DA:14,0
DA:15,0
DA:16,0
DA:17,0
DA:19,0
BRF:0
BRH:0
LF:14
LH:0
end_of_record
SF:/home/runner/work/stn/stn/crates/stn/src/commands/install.rs
FN:9,_RNvNtNtCsEWPAVLh8Tr_3stn8commands7install7install
FNDA:0,_RNvNtNtCsEWPAVLh8Tr_3stn8commands7install7install
FNF:1
FNH:0
DA:9,0
DA:10,0
DA:11,0
DA:12,0
DA:13,0
DA:14,0
DA:15,0
DA:16,0
DA:17,0
DA:18,0
DA:19,0
DA:20,0
DA:21,0
DA:22,0
DA:23,0
DA:24,0
DA:25,0
DA:26,0
DA:27,0
DA:28,0
DA:29,0
DA:30,0
DA:31,0
DA:32,0
DA:33,0
DA:34,0
DA:35,0
DA:36,0
DA:37,0
DA:38,0
DA:39,0
DA:40,0
DA:41,0
DA:42,0
DA:45,0
DA:46,0
DA:47,0
DA:48,0
DA:49,0
DA:50,0
DA:51,0
DA:52,0
BRF:0
BRH:0
LF:42
LH:0
end_of_record
SF:/home/runner/work/stn/stn/crates/stn/src/commands/logs.rs
FN:5,_RNvNtNtCsEWPAVLh8Tr_3stn8commands4logs4logs
FNDA:0,_RNvNtNtCsEWPAVLh8Tr_3stn8commands4logs4logs
FNF:1
FNH:0
DA:5,0
DA:6,0
DA:7,0
DA:8,0
DA:9,0
DA:10,0
DA:11,0
DA:12,0
DA:13,0
DA:14,0
DA:15,0
DA:16,0
DA:17,0
DA:18,0
DA:19,0
DA:20,0
DA:21,0
DA:22,0
DA:23,0
DA:24,0
DA:25,0
DA:26,0
DA:29,0
DA:30,0
DA:31,0
DA:32,0
DA:33,0
DA:34,0
DA:35,0
DA:37,0
BRF:0
BRH:0
LF:30
LH:0
end_of_record
SF:/home/runner/work/stn/stn/crates/stn/src/commands/remove.rs
FN:5,_RNvNtNtCsEWPAVLh8Tr_3stn8commands6remove6remove
FNDA:0,_RNvNtNtCsEWPAVLh8Tr_3stn8commands6remove6remove
FNF:1
FNH:0
DA:5,0
DA:6,0
DA:7,0
DA:8,0
DA:9,0
DA:10,0
DA:11,0
DA:12,0
DA:13,0
DA:14,0
DA:15,0
DA:16,0
DA:17,0
DA:21,0
DA:22,0
DA:23,0
DA:24,0
DA:25,0
DA:26,0
DA:27,0
DA:28,0
DA:30,0
BRF:0
BRH:0
LF:22
LH:0
end_of_record
SF:/home/runner/work/stn/stn/crates/stn/src/commands/restart.rs
FN:5,_RNvNtNtCsEWPAVLh8Tr_3stn8commands7restart7restart
FN:5,_RNCNvNtNtCsEWPAVLh8Tr_3stn8commands7restart7restart0B7_
FNDA:0,_RNvNtNtCsEWPAVLh8Tr_3stn8commands7restart7restart
FNDA:0,_RNCNvNtNtCsEWPAVLh8Tr_3stn8commands7restart7restart0B7_
FNF:2
FNH:0
DA:5,0
DA:6,0
DA:7,0
DA:8,0
BRF:0
BRH:0
LF:5
LH:0
end_of_record
SF:/home/runner/work/stn/stn/crates/stn/src/commands/stats.rs
FN:5,_RNvNtNtCsEWPAVLh8Tr_3stn8commands5stats5stats
FNDA:0,_RNvNtNtCsEWPAVLh8Tr_3stn8commands5stats5stats
FNF:1
FNH:0
DA:5,0
DA:6,0
DA:7,0
DA:8,0
DA:9,0
DA:10,0
DA:11,0
DA:12,0
DA:13,0
DA:14,0
DA:15,0
DA:16,0
DA:17,0
DA:19,0
BRF:0
BRH:0
LF:14
LH:0
end_of_record
SF:/home/runner/work/stn/stn/crates/stn/src/commands/status.rs
FN:9,_RNvNtNtCsEWPAVLh8Tr_3stn8commands6status6status
FN:9,_RNCNvNtNtCsEWPAVLh8Tr_3stn8commands6status6status0B7_
FNDA:0,_RNvNtNtCsEWPAVLh8Tr_3stn8commands6status6status
FNDA:0,_RNCNvNtNtCsEWPAVLh8Tr_3stn8commands6status6status0B7_
FNF:2
FNH:0
DA:9,0
DA:10,0
DA:11,0
DA:12,0
DA:13,0
DA:14,0
DA:15,0
DA:16,0
DA:17,0
DA:18,0
DA:19,0
DA:20,0
DA:21,0
DA:22,0
DA:23,0
DA:24,0
DA:25,0
DA:26,0
DA:27,0
DA:28,0
DA:30,0
DA:31,0
DA:32,0
DA:33,0
DA:34,0
DA:35,0
DA:36,0
DA:39,0
DA:40,0
DA:41,0
DA:43,0
BRF:0
BRH:0
LF:32
LH:0
end_of_record
SF:/home/runner/work/stn/stn/crates/stn/src/commands/up.rs
FN:5,_RNvNtNtCsEWPAVLh8Tr_3stn8commands2up2up
FN:5,_RNCNvNtNtCsEWPAVLh8Tr_3stn8commands2up2up0B7_
FNDA:0,_RNvNtNtCsEWPAVLh8Tr_3stn8commands2up2up
FNDA:0,_RNCNvNtNtCsEWPAVLh8Tr_3stn8commands2up2up0B7_
FNF:2
FNH:0
DA:5,0
DA:6,0
DA:7,0
DA:8,0
DA:9,0
DA:10,0
DA:11,0
DA:12,0
DA:13,0
DA:14,0
DA:15,0
DA:16,0
DA:17,0
DA:18,0
DA:19,0
DA:20,0
DA:21,0
DA:22,0
DA:23,0
DA:24,0
DA:25,0
DA:26,0
DA:27,0
DA:28,0
DA:29,0
DA:30,0
DA:31,0
DA:32,0
DA:34,0
BRF:0
BRH:0
LF:30
LH:0
end_of_record
SF:/home/runner/work/stn/stn/crates/stn/src/commands/upgrade.rs
FN:9,_RNvNtNtCsEWPAVLh8Tr_3stn8commands7upgrade7upgrade
FN:9,_RNCNvNtNtCsEWPAVLh8Tr_3stn8commands7upgrade7upgrade0B7_
FNDA:0,_RNvNtNtCsEWPAVLh8Tr_3stn8commands7upgrade7upgrade
FNDA:0,_RNCNvNtNtCsEWPAVLh8Tr_3stn8commands7upgrade7upgrade0B7_
FNF:2
FNH:0
DA:9,0
DA:11,0
DA:12,0
DA:13,0
DA:14,0
DA:15,0
DA:16,0
DA:17,0
DA:18,0
DA:19,0
DA:20,0
DA:21,0
DA:22,0
DA:23,0
DA:24,0
DA:25,0
DA:26,0
DA:27,0
DA:28,0
DA:29,0
DA:30,0
DA:31,0
DA:32,0
DA:33,0
DA:34,0
DA:35,0
DA:38,0
DA:39,0
DA:40,0
DA:41,0
DA:42,0
DA:43,0
DA:44,0
DA:49,0
DA:50,0
DA:51,0
DA:52,0
DA:53,0
DA:54,0
DA:55,0
DA:56,0
DA:57,0
DA:58,0
DA:62,0
DA:63,0
DA:64,0
DA:65,0
DA:67,0
DA:68,0
DA:69,0
DA:70,0
DA:71,0
BRF:0
BRH:0
LF:53
LH:0
end_of_record
SF:/home/runner/work/stn/stn/crates/stn/src/docker.rs
FN:10,_RNvXNtCsEWPAVLh8Tr_3stn6dockerNtB2_11DockerErrorNtNtCs2fyPGiZs4Bj_4core3fmt7Display3fmt
FN:24,_RNvNtCsEWPAVLh8Tr_3stn6docker22execute_docker_command
FN:33,_RNCNvNtCsEWPAVLh8Tr_3stn6docker22execute_docker_command0B5_
FN:39,_RNCNvNtCsEWPAVLh8Tr_3stn6docker22execute_docker_commands_0B5_
FN:49,_RNCNvNtCsEWPAVLh8Tr_3stn6docker22execute_docker_commands0_0B5_
FN:56,_RNvNtCsEWPAVLh8Tr_3stn6docker19check_docker_daemon
FNDA:0,_RNvXNtCsEWPAVLh8Tr_3stn6dockerNtB2_11DockerErrorNtNtCs2fyPGiZs4Bj_4core3fmt7Display3fmt
FNDA:0,_RNvNtCsEWPAVLh8Tr_3stn6docker22execute_docker_command
FNDA:0,_RNCNvNtCsEWPAVLh8Tr_3stn6docker22execute_docker_command0B5_
FNDA:0,_RNCNvNtCsEWPAVLh8Tr_3stn6docker22execute_docker_commands_0B5_
FNDA:0,_RNCNvNtCsEWPAVLh8Tr_3stn6docker22execute_docker_commands0_0B5_
FNDA:0,_RNvNtCsEWPAVLh8Tr_3stn6docker19check_docker_daemon
FNF:6
FNH:0
DA:10,0
DA:11,0
DA:13,0
DA:14,0
DA:15,0
DA:16,0
DA:18,0
DA:20,0
DA:24,0
DA:25,0
DA:28,0
DA:29,0
DA:30,0
DA:31,0
DA:32,0
DA:33,0
DA:35,0
DA:36,0
DA:37,0
DA:38,0
DA:39,0
DA:42,0
DA:43,0
DA:44,0
DA:45,0
DA:46,0
DA:49,0
DA:50,0
DA:53,0
DA:56,0
DA:57,0
DA:58,0
DA:60,0
DA:63,0
DA:65,0
DA:66,0
DA:67,0
DA:69,0
BRF:0
BRH:0
LF:41
LH:0
end_of_record
SF:/home/runner/work/stn/stn/crates/stn/src/env_manager.rs
FN:13,_RNvMNtCsEWPAVLh8Tr_3stn11env_managerNtB2_10EnvManager3new
FN:36,_RNvMNtCsEWPAVLh8Tr_3stn11env_managerNtB2_10EnvManager3get
FN:37,_RNCNvMNtCsEWPAVLh8Tr_3stn11env_managerNtB4_10EnvManager3get0B6_
FN:38,_RNCNCNvMNtCsEWPAVLh8Tr_3stn11env_managerNtB6_10EnvManager3get00B8_
FN:40,_RNCNCNCNvMNtCsEWPAVLh8Tr_3stn11env_managerNtB8_10EnvManager3get000Ba_
FN:45,_RNvMNtCsEWPAVLh8Tr_3stn11env_managerNtB2_10EnvManager3set
FN:57,_RNvMNtCsEWPAVLh8Tr_3stn11env_managerNtB2_10EnvManager4save
FN:69,_RNvMNtCsEWPAVLh8Tr_3stn11env_managerNtB2_10EnvManager18update_from_sample
FNDA:0,_RNvMNtCsEWPAVLh8Tr_3stn11env_managerNtB2_10EnvManager3new
FNDA:0,_RNvMNtCsEWPAVLh8Tr_3stn11env_managerNtB2_10EnvManager3get
FNDA:0,_RNCNvMNtCsEWPAVLh8Tr_3stn11env_managerNtB4_10EnvManager3get0B6_
FNDA:0,_RNCNCNvMNtCsEWPAVLh8Tr_3stn11env_managerNtB6_10EnvManager3get00B8_
FNDA:0,_RNCNCNCNvMNtCsEWPAVLh8Tr_3stn11env_managerNtB8_10EnvManager3get000Ba_
FNDA:0,_RNvMNtCsEWPAVLh8Tr_3stn11env_managerNtB2_10EnvManager3set
FNDA:0,_RNvMNtCsEWPAVLh8Tr_3stn11env_managerNtB2_10EnvManager4save
FNDA:0,_RNvMNtCsEWPAVLh8Tr_3stn11env_managerNtB2_10EnvManager18update_from_sample
FNF:8
FNH:0
DA:13,0
DA:14,0
DA:15,0
DA:16,0
DA:17,0
DA:18,0
DA:20,0
DA:21,0
DA:22,0
DA:24,0
DA:25,0
DA:26,0
DA:29,0
DA:30,0
DA:31,0
DA:32,0
DA:33,0
DA:34,0
DA:36,0
DA:37,0
DA:38,0
DA:39,0
DA:40,0
DA:41,0
DA:42,0
DA:43,0
DA:45,0
DA:46,0
DA:47,0
DA:48,0
DA:49,0
DA:50,0
DA:51,0
DA:52,0
DA:53,0
DA:55,0
DA:57,0
DA:58,0
DA:59,0
DA:60,0
DA:61,0
DA:63,0
DA:64,0
DA:67,0
DA:68,0
DA:69,0
DA:70,0
DA:71,0
DA:72,0
DA:73,0
DA:74,0
DA:75,0
DA:76,0
DA:77,0
DA:80,0
DA:81,0
DA:82,0
DA:83,0
DA:84,0
DA:85,0
DA:86,0
DA:87,0
DA:90,0
DA:91,0
DA:92,0
DA:93,0
DA:94,0
DA:95,0
DA:96,0
DA:97,0
DA:98,0
DA:99,0
DA:100,0
DA:101,0
DA:102,0
DA:103,0
DA:104,0
DA:105,0
DA:106,0
DA:107,0
DA:111,0
DA:112,0
DA:113,0
DA:114,0
DA:118,0
DA:119,0
DA:120,0
DA:121,0
BRF:0
BRH:0
LF:93
LH:0
end_of_record
SF:/home/runner/work/stn/stn/crates/stn/src/main.rs
FN:85,_RNvCsEWPAVLh8Tr_3stn4main
FN:85,_RNCNvCsEWPAVLh8Tr_3stn4main0B3_
FN:134,_RNvCsEWPAVLh8Tr_3stn17get_stn_directory
FN:136,_RNCNvCsEWPAVLh8Tr_3stn17get_stn_directory0B3_
FNDA:0,_RNvCsEWPAVLh8Tr_3stn4main
FNDA:0,_RNCNvCsEWPAVLh8Tr_3stn4main0B3_
FNDA:0,_RNvCsEWPAVLh8Tr_3stn17get_stn_directory
FNDA:0,_RNCNvCsEWPAVLh8Tr_3stn17get_stn_directory0B3_
FNF:4
FNH:0
DA:85,0
DA:86,0
DA:87,0
DA:88,0
DA:89,0
DA:90,0
DA:91,0
DA:92,0
DA:93,0
DA:94,0
DA:95,0
DA:96,0
DA:97,0
DA:98,0
DA:99,0
DA:100,0
DA:101,0
DA:102,0
DA:103,0
DA:104,0
DA:105,0
DA:106,0
DA:107,0
DA:108,0
DA:109,0
DA:110,0
DA:111,0
DA:112,0
DA:113,0
DA:114,0
DA:115,0
DA:116,0
DA:117,0
DA:118,0
DA:119,0
DA:120,0
DA:121,0
DA:122,0
DA:123,0
DA:124,0
DA:125,0
DA:126,0
DA:127,0
DA:128,0
DA:129,0
DA:130,0
DA:131,0
DA:134,0
DA:135,0
DA:136,0
DA:137,0
DA:138,0
BRF:0
BRH:0
LF:86
LH:0
end_of_record
SF:/home/runner/work/stn/stn/crates/stn/src/network.rs
FN:22,_RNvXNtCsEWPAVLh8Tr_3stn7networkNtB2_9SyncErrorNtNtCs2fyPGiZs4Bj_4core3fmt7Display3fmt
FN:31,_RNvNtCsEWPAVLh8Tr_3stn7network14get_sync_state
FN:31,_RNCNvNtCsEWPAVLh8Tr_3stn7network14get_sync_state0B5_
FN:33,_RNCNCNvNtCsEWPAVLh8Tr_3stn7network14get_sync_state00B7_
FN:57,_RNvNtCsEWPAVLh8Tr_3stn7network9is_synced
FN:57,_RNCNvNtCsEWPAVLh8Tr_3stn7network9is_synced0B5_
FN:83,_RNvNtCsEWPAVLh8Tr_3stn7network18validate_endpoints
FN:83,_RNCNvNtCsEWPAVLh8Tr_3stn7network18validate_endpoints0B5_
FN:126,_RNvNtCsEWPAVLh8Tr_3stn7network24is_prover_api_functional
FN:126,_RNCNvNtCsEWPAVLh8Tr_3stn7network24is_prover_api_functional0B5_
FN:139,_RNvNtCsEWPAVLh8Tr_3stn7network23connect_ws_with_timeout
FN:142,_RNCNvNtCsEWPAVLh8Tr_3stn7network23connect_ws_with_timeout0B5_
FNDA:0,_RNvXNtCsEWPAVLh8Tr_3stn7networkNtB2_9SyncErrorNtNtCs2fyPGiZs4Bj_4core3fmt7Display3fmt
FNDA:0,_RNvNtCsEWPAVLh8Tr_3stn7network14get_sync_state
FNDA:0,_RNCNvNtCsEWPAVLh8Tr_3stn7network14get_sync_state0B5_
FNDA:0,_RNCNCNvNtCsEWPAVLh8Tr_3stn7network14get_sync_state00B7_
FNDA:0,_RNvNtCsEWPAVLh8Tr_3stn7network9is_synced
FNDA:0,_RNCNvNtCsEWPAVLh8Tr_3stn7network9is_synced0B5_
FNDA:0,_RNvNtCsEWPAVLh8Tr_3stn7network18validate_endpoints
FNDA:0,_RNCNvNtCsEWPAVLh8Tr_3stn7network18validate_endpoints0B5_
FNDA:0,_RNvNtCsEWPAVLh8Tr_3stn7network24is_prover_api_functional
FNDA:0,_RNCNvNtCsEWPAVLh8Tr_3stn7network24is_prover_api_functional0B5_
FNDA:0,_RNvNtCsEWPAVLh8Tr_3stn7network23connect_ws_with_timeout
FNDA:0,_RNCNvNtCsEWPAVLh8Tr_3stn7network23connect_ws_with_timeout0B5_
FNF:12
FNH:0
DA:22,0
DA:23,0
DA:24,0
DA:25,0
DA:27,0
DA:31,0
DA:32,0
DA:33,0
DA:35,0
DA:36,0
DA:37,0
DA:38,0
DA:39,0
DA:41,0
DA:43,0
DA:44,0
DA:45,0
DA:46,0
DA:48,0
DA:49,0
DA:50,0
DA:51,0
DA:52,0
DA:54,0
DA:57,0
DA:58,0
DA:59,0
DA:60,0
DA:61,0
DA:64,0
DA:65,0
DA:66,0
DA:69,0
DA:70,0
DA:71,0
DA:74,0
DA:75,0
DA:76,0
DA:79,0
DA:80,0
DA:83,0
DA:84,0
DA:87,0
DA:88,0
DA:90,0
DA:91,0
DA:95,0
DA:96,0
DA:97,0
DA:99,0
DA:100,0
DA:105,0
DA:106,0
DA:107,0
DA:108,0
DA:109,0
DA:113,0
DA:114,0
DA:115,0
DA:117,0
DA:118,0
DA:122,0
DA:123,0
DA:126,0
DA:127,0
DA:128,0
DA:129,0
DA:130,0
DA:131,0
DA:133,0
DA:135,0
DA:139,0
DA:140,0
DA:141,0
DA:142,0
DA:143,0
DA:144,0
DA:145,0
DA:146,0
DA:148,0
BRF:0
BRH:0
LF:86
LH:0
end_of_record